target datalayout = "e-m:e-p270:32:32-p271:32:32-p272:64:64-i64:64-i128:128-f80:128-n8:16:32:64-S128"
target triple = "x86_64-pc-linux-gnu"

%struct.cmsVEC3 = type { [3 x double] }
%struct.cmsMAT3 = type { [3 x %struct.cmsVEC3] }

; Function Attrs: nounwind uwtable
define hidden void @_cmsMAT3eval(ptr noundef %0, ptr noundef %1, ptr noundef %2) #0 {
  %4 = alloca ptr, align 8
  %5 = alloca ptr, align 8
  %6 = alloca ptr, align 8
  store ptr %0, ptr %4, align 8
  store ptr %1, ptr %5, align 8
  store ptr %2, ptr %6, align 8
  %7 = load ptr, ptr %5, align 8
  %8 = getelementptr inbounds %struct.cmsMAT3, ptr %7, i32 0, i32 0
  %9 = getelementptr inbounds [3 x %struct.cmsVEC3], ptr %8, i64 0, i64 0
  %10 = getelementptr inbounds %struct.cmsVEC3, ptr %9, i32 0, i32 0
  %11 = getelementptr inbounds [3 x double], ptr %10, i64 0, i64 0
  %12 = load double, ptr %11, align 8
  %13 = load ptr, ptr %6, align 8
  %14 = getelementptr inbounds %struct.cmsVEC3, ptr %13, i32 0, i32 0
  %15 = getelementptr inbounds [3 x double], ptr %14, i64 0, i64 0
  %16 = load double, ptr %15, align 8
  %17 = load ptr, ptr %5, align 8
  %18 = getelementptr inbounds %struct.cmsMAT3, ptr %17, i32 0, i32 0
  %19 = getelementptr inbounds [3 x %struct.cmsVEC3], ptr %18, i64 0, i64 0
  %20 = getelementptr inbounds %struct.cmsVEC3, ptr %19, i32 0, i32 0
  %21 = getelementptr inbounds [3 x double], ptr %20, i64 0, i64 1
  %22 = load double, ptr %21, align 8
  %23 = load ptr, ptr %6, align 8
  %24 = getelementptr inbounds %struct.cmsVEC3, ptr %23, i32 0, i32 0
  %25 = getelementptr inbounds [3 x double], ptr %24, i64 0, i64 1
  %26 = load double, ptr %25, align 8
  %27 = fmul double %22, %26
  %28 = call double @llvm.fmuladd.f64(double %12, double %16, double %27)
  %29 = load ptr, ptr %5, align 8
  %30 = getelementptr inbounds %struct.cmsMAT3, ptr %29, i32 0, i32 0
  %31 = getelementptr inbounds [3 x %struct.cmsVEC3], ptr %30, i64 0, i64 0
  %32 = getelementptr inbounds %struct.cmsVEC3, ptr %31, i32 0, i32 0
  %33 = getelementptr inbounds [3 x double], ptr %32, i64 0, i64 2
  %34 = load double, ptr %33, align 8
  %35 = load ptr, ptr %6, align 8
  %36 = getelementptr inbounds %struct.cmsVEC3, ptr %35, i32 0, i32 0
  %37 = getelementptr inbounds [3 x double], ptr %36, i64 0, i64 2
  %38 = load double, ptr %37, align 8
  %39 = call double @llvm.fmuladd.f64(double %34, double %38, double %28)
  %40 = load ptr, ptr %4, align 8
  %41 = getelementptr inbounds %struct.cmsVEC3, ptr %40, i32 0, i32 0
  %42 = getelementptr inbounds [3 x double], ptr %41, i64 0, i64 0
  store double %39, ptr %42, align 8
  %43 = load ptr, ptr %5, align 8
  %44 = getelementptr inbounds %struct.cmsMAT3, ptr %43, i32 0, i32 0
  %45 = getelementptr inbounds [3 x %struct.cmsVEC3], ptr %44, i64 0, i64 1
  %46 = getelementptr inbounds %struct.cmsVEC3, ptr %45, i32 0, i32 0
  %47 = getelementptr inbounds [3 x double], ptr %46, i64 0, i64 0
  %48 = load double, ptr %47, align 8
  %49 = load ptr, ptr %6, align 8
  %50 = getelementptr inbounds %struct.cmsVEC3, ptr %49, i32 0, i32 0
  %51 = getelementptr inbounds [3 x double], ptr %50, i64 0, i64 0
  %52 = load double, ptr %51, align 8
  %53 = load ptr, ptr %5, align 8
  %54 = getelementptr inbounds %struct.cmsMAT3, ptr %53, i32 0, i32 0
  %55 = getelementptr inbounds [3 x %struct.cmsVEC3], ptr %54, i64 0, i64 1
  %56 = getelementptr inbounds %struct.cmsVEC3, ptr %55, i32 0, i32 0
  %57 = getelementptr inbounds [3 x double], ptr %56, i64 0, i64 1
  %58 = load double, ptr %57, align 8
  %59 = load ptr, ptr %6, align 8
  %60 = getelementptr inbounds %struct.cmsVEC3, ptr %59, i32 0, i32 0
  %61 = getelementptr inbounds [3 x double], ptr %60, i64 0, i64 1
  %62 = load double, ptr %61, align 8
  %63 = fmul double %58, %62
  %64 = call double @llvm.fmuladd.f64(double %48, double %52, double %63)
  %65 = load ptr, ptr %5, align 8
  %66 = getelementptr inbounds %struct.cmsMAT3, ptr %65, i32 0, i32 0
  %67 = getelementptr inbounds [3 x %struct.cmsVEC3], ptr %66, i64 0, i64 1
  %68 = getelementptr inbounds %struct.cmsVEC3, ptr %67, i32 0, i32 0
  %69 = getelementptr inbounds [3 x double], ptr %68, i64 0, i64 2
  %70 = load double, ptr %69, align 8
  %71 = load ptr, ptr %6, align 8
  %72 = getelementptr inbounds %struct.cmsVEC3, ptr %71, i32 0, i32 0
  %73 = getelementptr inbounds [3 x double], ptr %72, i64 0, i64 2
  %74 = load double, ptr %73, align 8
  %75 = call double @llvm.fmuladd.f64(double %70, double %74, double %64)
  %76 = load ptr, ptr %4, align 8
  %77 = getelementptr inbounds %struct.cmsVEC3, ptr %76, i32 0, i32 0
  %78 = getelementptr inbounds [3 x double], ptr %77, i64 0, i64 1
  store double %75, ptr %78, align 8
  %79 = load ptr, ptr %5, align 8
  %80 = getelementptr inbounds %struct.cmsMAT3, ptr %79, i32 0, i32 0
  %81 = getelementptr inbounds [3 x %struct.cmsVEC3], ptr %80, i64 0, i64 2
  %82 = getelementptr inbounds %struct.cmsVEC3, ptr %81, i32 0, i32 0
  %83 = getelementptr inbounds [3 x double], ptr %82, i64 0, i64 0
  %84 = load double, ptr %83, align 8
  %85 = load ptr, ptr %6, align 8
  %86 = getelementptr inbounds %struct.cmsVEC3, ptr %85, i32 0, i32 0
  %87 = getelementptr inbounds [3 x double], ptr %86, i64 0, i64 0
  %88 = load double, ptr %87, align 8
  %89 = load ptr, ptr %5, align 8
  %90 = getelementptr inbounds %struct.cmsMAT3, ptr %89, i32 0, i32 0
  %91 = getelementptr inbounds [3 x %struct.cmsVEC3], ptr %90, i64 0, i64 2
  %92 = getelementptr inbounds %struct.cmsVEC3, ptr %91, i32 0, i32 0
  %93 = getelementptr inbounds [3 x double], ptr %92, i64 0, i64 1
  %94 = load double, ptr %93, align 8
  %95 = load ptr, ptr %6, align 8
  %96 = getelementptr inbounds %struct.cmsVEC3, ptr %95, i32 0, i32 0
  %97 = getelementptr inbounds [3 x double], ptr %96, i64 0, i64 1
  %98 = load double, ptr %97, align 8
  %99 = fmul double %94, %98
  %100 = call double @llvm.fmuladd.f64(double %84, double %88, double %99)
  %101 = load ptr, ptr %5, align 8
  %102 = getelementptr inbounds %struct.cmsMAT3, ptr %101, i32 0, i32 0
  %103 = getelementptr inbounds [3 x %struct.cmsVEC3], ptr %102, i64 0, i64 2
  %104 = getelementptr inbounds %struct.cmsVEC3, ptr %103, i32 0, i32 0
  %105 = getelementptr inbounds [3 x double], ptr %104, i64 0, i64 2
  %106 = load double, ptr %105, align 8
  %107 = load ptr, ptr %6, align 8
  %108 = getelementptr inbounds %struct.cmsVEC3, ptr %107, i32 0, i32 0
  %109 = getelementptr inbounds [3 x double], ptr %108, i64 0, i64 2
  %110 = load double, ptr %109, align 8
  %111 = call double @llvm.fmuladd.f64(double %106, double %110, double %100)
  %112 = load ptr, ptr %4, align 8
  %113 = getelementptr inbounds %struct.cmsVEC3, ptr %112, i32 0, i32 0
  %114 = getelementptr inbounds [3 x double], ptr %113, i64 0, i64 2
  store double %111, ptr %114, align 8
  ret void
}