; Function Attrs: mustprogress nofree norecurse nosync nounwind willreturn memory(argmem: readwrite) uwtable
define hidden void @_cmsMAT3eval(ptr nocapture noundef writeonly %0, ptr nocapture noundef readonly %1, ptr nocapture noundef readonly %2) local_unnamed_addr #1 {
  %4 = load double, ptr %1, align 8
  %5 = load double, ptr %2, align 8
  %6 = getelementptr inbounds i8, ptr %1, i64 8
  %7 = load double, ptr %6, align 8
  %8 = getelementptr inbounds i8, ptr %2, i64 8
  %9 = load double, ptr %8, align 8
  %10 = fmul double %7, %9
  %11 = tail call double @llvm.fmuladd.f64(double %4, double %5, double %10)
  %12 = getelementptr inbounds i8, ptr %1, i64 16
  %13 = load double, ptr %12, align 8
  %14 = getelementptr inbounds i8, ptr %2, i64 16
  %15 = load double, ptr %14, align 8
  %16 = tail call double @llvm.fmuladd.f64(double %13, double %15, double %11)
  store double %16, ptr %0, align 8
  %17 = getelementptr inbounds i8, ptr %1, i64 24
  %18 = load double, ptr %17, align 8
  %19 = load double, ptr %2, align 8
  %20 = getelementptr inbounds i8, ptr %1, i64 32
  %21 = load double, ptr %20, align 8
  %22 = load double, ptr %8, align 8
  %23 = fmul double %21, %22
  %24 = tail call double @llvm.fmuladd.f64(double %18, double %19, double %23)
  %25 = getelementptr inbounds i8, ptr %1, i64 40
  %26 = load double, ptr %25, align 8
  %27 = load double, ptr %14, align 8
  %28 = tail call double @llvm.fmuladd.f64(double %26, double %27, double %24)
  %29 = getelementptr inbounds i8, ptr %0, i64 8
  store double %28, ptr %29, align 8
  %30 = getelementptr inbounds i8, ptr %1, i64 48
  %31 = load double, ptr %30, align 8
  %32 = load double, ptr %2, align 8
  %33 = getelementptr inbounds i8, ptr %1, i64 56
  %34 = load double, ptr %33, align 8
  %35 = load double, ptr %8, align 8
  %36 = fmul double %34, %35
  %37 = tail call double @llvm.fmuladd.f64(double %31, double %32, double %36)
  %38 = getelementptr inbounds i8, ptr %1, i64 64
  %39 = load double, ptr %38, align 8
  %40 = load double, ptr %14, align 8
  %41 = tail call double @llvm.fmuladd.f64(double %39, double %40, double %37)
  %42 = getelementptr inbounds i8, ptr %0, i64 16
  store double %41, ptr %42, align 8
  ret void
}